target datalayout = "e-m:e-p270:32:32-p271:32:32-p272:64:64-i64:64-i128:128-f80:128-n8:16:32:64-S128"
target triple = "x86_64-pc-linux-gnu"

%"class.std::shared_ptr" = type { %"class.std::__shared_ptr" }
%"class.std::__shared_ptr" = type { ptr, %"class.std::__shared_count" }
%"class.std::__shared_count" = type { ptr }
%"struct.open_spiel::quoridor::Move" = type { i32, i32, i32, i32 }
%"class.open_spiel::quoridor::QuoridorState" = type <{ %"class.open_spiel::State.base", [4 x i8], %"class.std::vector.9", %"class.std::vector.9", %"class.std::vector.14", %"class.std::vector.14", %"class.std::vector.19", i8, [3 x i8], i32, i8, [3 x i8], i32, i32, i32, i8, [3 x i8], %"struct.open_spiel::quoridor::Move", [4 x i8] }>
%"class.open_spiel::State.base" = type <{ ptr, %"class.std::shared_ptr", i32, i32, %"class.std::vector", i32 }>
%"class.std::vector" = type { %"struct.std::_Vector_base" }
%"struct.std::_Vector_base" = type { %"struct.std::_Vector_base<open_spiel::State::PlayerAction, std::allocator<open_spiel::State::PlayerAction>>::_Vector_impl" }
%"struct.std::_Vector_base<open_spiel::State::PlayerAction, std::allocator<open_spiel::State::PlayerAction>>::_Vector_impl" = type { %"struct.std::_Vector_base<open_spiel::State::PlayerAction, std::allocator<open_spiel::State::PlayerAction>>::_Vector_impl_data" }
%"struct.std::_Vector_base<open_spiel::State::PlayerAction, std::allocator<open_spiel::State::PlayerAction>>::_Vector_impl_data" = type { ptr, ptr, ptr }
%"class.std::vector.9" = type { %"struct.std::_Vector_base.10" }
%"struct.std::_Vector_base.10" = type { %"struct.std::_Vector_base<open_spiel::quoridor::QuoridorPlayer, std::allocator<open_spiel::quoridor::QuoridorPlayer>>::_Vector_impl" }
%"struct.std::_Vector_base<open_spiel::quoridor::QuoridorPlayer, std::allocator<open_spiel::quoridor::QuoridorPlayer>>::_Vector_impl" = type { %"struct.std::_Vector_base<open_spiel::quoridor::QuoridorPlayer, std::allocator<open_spiel::quoridor::QuoridorPlayer>>::_Vector_impl_data" }
%"struct.std::_Vector_base<open_spiel::quoridor::QuoridorPlayer, std::allocator<open_spiel::quoridor::QuoridorPlayer>>::_Vector_impl_data" = type { ptr, ptr, ptr }
%"class.std::vector.14" = type { %"struct.std::_Vector_base.15" }
%"struct.std::_Vector_base.15" = type { %"struct.std::_Vector_base<int, std::allocator<int>>::_Vector_impl" }
%"struct.std::_Vector_base<int, std::allocator<int>>::_Vector_impl" = type { %"struct.std::_Vector_base<int, std::allocator<int>>::_Vector_impl_data" }
%"struct.std::_Vector_base<int, std::allocator<int>>::_Vector_impl_data" = type { ptr, ptr, ptr }
%"class.std::vector.19" = type { %"struct.std::_Vector_base.20" }
%"struct.std::_Vector_base.20" = type { %"struct.std::_Vector_base<open_spiel::quoridor::Move, std::allocator<open_spiel::quoridor::Move>>::_Vector_impl" }
%"struct.std::_Vector_base<open_spiel::quoridor::Move, std::allocator<open_spiel::quoridor::Move>>::_Vector_impl" = type { %"struct.std::_Vector_base<open_spiel::quoridor::Move, std::allocator<open_spiel::quoridor::Move>>::_Vector_impl_data" }
%"struct.std::_Vector_base<open_spiel::quoridor::Move, std::allocator<open_spiel::quoridor::Move>>::_Vector_impl_data" = type { ptr, ptr, ptr }
%"struct.open_spiel::quoridor::Offset" = type { i32, i32 }

; Function Attrs: mustprogress nounwind uwtable
define linkonce_odr noundef nonnull align 1 dereferenceable(1) ptr @_ZNKSt6vectorIN10open_spiel8quoridor14QuoridorPlayerESaIS2_EEixEm(ptr noundef nonnull align 8 dereferenceable(24) %0, i64 noundef %1) #5 comdat align 2 {
  %3 = alloca ptr, align 8
  %4 = alloca i64, align 8
  store ptr %0, ptr %3, align 8
  store i64 %1, ptr %4, align 8
  %5 = load ptr, ptr %3, align 8
  %6 = getelementptr inbounds nuw %"struct.std::_Vector_base.10", ptr %5, i32 0, i32 0
  %7 = getelementptr inbounds nuw %"struct.std::_Vector_base<open_spiel::quoridor::QuoridorPlayer, std::allocator<open_spiel::quoridor::QuoridorPlayer>>::_Vector_impl_data", ptr %6, i32 0, i32 0
  %8 = load ptr, ptr %7, align 8
  %9 = load i64, ptr %4, align 8
  %10 = getelementptr inbounds i8, ptr %8, i64 %9
  ret ptr %10
}

; Function Attrs: mustprogress nounwind uwtable
define linkonce_odr noundef zeroext i1 @_ZNK10open_spiel8quoridor4Move7IsValidEv(ptr noundef nonnull align 4 dereferenceable(16) %0) #5 comdat align 2 {
  %2 = alloca ptr, align 8
  store ptr %0, ptr %2, align 8
  %3 = load ptr, ptr %2, align 8
  %4 = getelementptr inbounds nuw %"struct.open_spiel::quoridor::Move", ptr %3, i32 0, i32 0
  %5 = load i32, ptr %4, align 4
  %6 = icmp sge i32 %5, 0
  br i1 %6, label %7, label %23

7:                                                ; preds = %1
  %8 = getelementptr inbounds nuw %"struct.open_spiel::quoridor::Move", ptr %3, i32 0, i32 1
  %9 = load i32, ptr %8, align 4
  %10 = icmp sge i32 %9, 0
  br i1 %10, label %11, label %23

11:                                               ; preds = %7
  %12 = getelementptr inbounds nuw %"struct.open_spiel::quoridor::Move", ptr %3, i32 0, i32 0
  %13 = load i32, ptr %12, align 4
  %14 = getelementptr inbounds nuw %"struct.open_spiel::quoridor::Move", ptr %3, i32 0, i32 3
  %15 = load i32, ptr %14, align 4
  %16 = icmp slt i32 %13, %15
  br i1 %16, label %17, label %23

17:                                               ; preds = %11
  %18 = getelementptr inbounds nuw %"struct.open_spiel::quoridor::Move", ptr %3, i32 0, i32 1
  %19 = load i32, ptr %18, align 4
  %20 = getelementptr inbounds nuw %"struct.open_spiel::quoridor::Move", ptr %3, i32 0, i32 3
  %21 = load i32, ptr %20, align 4
  %22 = icmp slt i32 %19, %21
  br label %23

23:                                               ; preds = %17, %11, %7, %1
  %24 = phi i1 [ false, %11 ], [ false, %7 ], [ false, %1 ], [ %22, %17 ]
  ret i1 %24
}

; Function Attrs: mustprogress nounwind uwtable
define linkonce_odr void @_ZN10open_spiel8quoridor6OffsetC2Eii(ptr noundef nonnull align 4 dereferenceable(8) %0, i32 noundef %1, i32 noundef %2) unnamed_addr #5 comdat align 2 {
  %4 = alloca ptr, align 8
  %5 = alloca i32, align 4
  %6 = alloca i32, align 4
  store ptr %0, ptr %4, align 8
  store i32 %1, ptr %5, align 4
  store i32 %2, ptr %6, align 4
  %7 = load ptr, ptr %4, align 8
  %8 = getelementptr inbounds nuw %"struct.open_spiel::quoridor::Offset", ptr %7, i32 0, i32 0
  %9 = load i32, ptr %5, align 4
  store i32 %9, ptr %8, align 4
  %10 = getelementptr inbounds nuw %"struct.open_spiel::quoridor::Offset", ptr %7, i32 0, i32 1
  %11 = load i32, ptr %6, align 4
  store i32 %11, ptr %10, align 4
  ret void
}

; Function Attrs: mustprogress nounwind uwtable
define linkonce_odr void @_ZN10open_spiel8quoridor4MoveC2Eiii(ptr noundef nonnull align 4 dereferenceable(16) %0, i32 noundef %1, i32 noundef %2, i32 noundef %3) unnamed_addr #5 comdat align 2 {
  %5 = alloca ptr, align 8
  %6 = alloca i32, align 4
  %7 = alloca i32, align 4
  %8 = alloca i32, align 4
  store ptr %0, ptr %5, align 8
  store i32 %1, ptr %6, align 4
  store i32 %2, ptr %7, align 4
  store i32 %3, ptr %8, align 4
  %9 = load ptr, ptr %5, align 8
  %10 = getelementptr inbounds nuw %"struct.open_spiel::quoridor::Move", ptr %9, i32 0, i32 0
  %11 = load i32, ptr %6, align 4
  store i32 %11, ptr %10, align 4
  %12 = getelementptr inbounds nuw %"struct.open_spiel::quoridor::Move", ptr %9, i32 0, i32 1
  %13 = load i32, ptr %7, align 4
  store i32 %13, ptr %12, align 4
  %14 = getelementptr inbounds nuw %"struct.open_spiel::quoridor::Move", ptr %9, i32 0, i32 2
  %15 = load i32, ptr %6, align 4
  %16 = load i32, ptr %7, align 4
  %17 = load i32, ptr %8, align 4
  %18 = mul nsw i32 %16, %17
  %19 = add nsw i32 %15, %18
  store i32 %19, ptr %14, align 4
  %20 = getelementptr inbounds nuw %"struct.open_spiel::quoridor::Move", ptr %9, i32 0, i32 3
  %21 = load i32, ptr %8, align 4
  store i32 %21, ptr %20, align 4
  ret void
}

; Function Attrs: mustprogress uwtable
define linkonce_odr i64 @_ZNK10open_spiel8quoridor6OffsetmlEi(ptr noundef nonnull align 4 dereferenceable(8) %0, i32 noundef %1) #4 comdat align 2 {
  %3 = alloca %"struct.open_spiel::quoridor::Offset", align 4
  %4 = alloca ptr, align 8
  %5 = alloca i32, align 4
  store ptr %0, ptr %4, align 8
  store i32 %1, ptr %5, align 4
  %6 = load ptr, ptr %4, align 8
  %7 = getelementptr inbounds nuw %"struct.open_spiel::quoridor::Offset", ptr %6, i32 0, i32 0
  %8 = load i32, ptr %7, align 4
  %9 = load i32, ptr %5, align 4
  %10 = mul nsw i32 %8, %9
  %11 = getelementptr inbounds nuw %"struct.open_spiel::quoridor::Offset", ptr %6, i32 0, i32 1
  %12 = load i32, ptr %11, align 4
  %13 = load i32, ptr %5, align 4
  %14 = mul nsw i32 %12, %13
  call void @_ZN10open_spiel8quoridor6OffsetC2Eii(ptr noundef nonnull align 4 dereferenceable(8) %3, i32 noundef %10, i32 noundef %14)
  %15 = load i64, ptr %3, align 4
  ret i64 %15
}

; Function Attrs: mustprogress uwtable
define linkonce_odr noundef zeroext i8 @_ZNK10open_spiel8quoridor13QuoridorState9GetPlayerENS0_4MoveE(ptr noundef nonnull align 8 dereferenceable(228) %0, i64 %1, i64 %2) #4 comdat align 2 {
  %4 = alloca %"struct.open_spiel::quoridor::Move", align 4
  %5 = alloca ptr, align 8
  %6 = getelementptr inbounds nuw { i64, i64 }, ptr %4, i32 0, i32 0
  store i64 %1, ptr %6, align 4
  %7 = getelementptr inbounds nuw { i64, i64 }, ptr %4, i32 0, i32 1
  store i64 %2, ptr %7, align 4
  store ptr %0, ptr %5, align 8
  %8 = load ptr, ptr %5, align 8
  %9 = call noundef zeroext i1 @_ZNK10open_spiel8quoridor4Move7IsValidEv(ptr noundef nonnull align 4 dereferenceable(16) %4)
  br i1 %9, label %10, label %17

10:                                               ; preds = %3
  %11 = getelementptr inbounds nuw %"class.open_spiel::quoridor::QuoridorState", ptr %8, i32 0, i32 2
  %12 = getelementptr inbounds nuw %"struct.open_spiel::quoridor::Move", ptr %4, i32 0, i32 2
  %13 = load i32, ptr %12, align 4
  %14 = sext i32 %13 to i64
  %15 = call noundef nonnull align 1 dereferenceable(1) ptr @_ZNKSt6vectorIN10open_spiel8quoridor14QuoridorPlayerESaIS2_EEixEm(ptr noundef nonnull align 8 dereferenceable(24) %11, i64 noundef %14) #3
  %16 = load i8, ptr %15, align 1
  br label %18

17:                                               ; preds = %3
  br label %18

18:                                               ; preds = %17, %10
  %19 = phi i8 [ %16, %10 ], [ 4, %17 ]
  ret i8 %19
}

; Function Attrs: mustprogress uwtable
define linkonce_odr { i64, i64 } @_ZNK10open_spiel8quoridor4MoveplERKNS0_6OffsetE(ptr noundef nonnull align 4 dereferenceable(16) %0, ptr noundef nonnull align 4 dereferenceable(8) %1) #4 comdat align 2 {
  %3 = alloca %"struct.open_spiel::quoridor::Move", align 4
  %4 = alloca ptr, align 8
  %5 = alloca ptr, align 8
  store ptr %0, ptr %4, align 8
  store ptr %1, ptr %5, align 8
  %6 = load ptr, ptr %4, align 8
  %7 = getelementptr inbounds nuw %"struct.open_spiel::quoridor::Move", ptr %6, i32 0, i32 0
  %8 = load i32, ptr %7, align 4
  %9 = load ptr, ptr %5, align 8
  %10 = getelementptr inbounds nuw %"struct.open_spiel::quoridor::Offset", ptr %9, i32 0, i32 0
  %11 = load i32, ptr %10, align 4
  %12 = add nsw i32 %8, %11
  %13 = getelementptr inbounds nuw %"struct.open_spiel::quoridor::Move", ptr %6, i32 0, i32 1
  %14 = load i32, ptr %13, align 4
  %15 = load ptr, ptr %5, align 8
  %16 = getelementptr inbounds nuw %"struct.open_spiel::quoridor::Offset", ptr %15, i32 0, i32 1
  %17 = load i32, ptr %16, align 4
  %18 = add nsw i32 %14, %17
  %19 = getelementptr inbounds nuw %"struct.open_spiel::quoridor::Move", ptr %6, i32 0, i32 3
  %20 = load i32, ptr %19, align 4
  call void @_ZN10open_spiel8quoridor4MoveC2Eiii(ptr noundef nonnull align 4 dereferenceable(16) %3, i32 noundef %12, i32 noundef %18, i32 noundef %20)
  %21 = load { i64, i64 }, ptr %3, align 4
  ret { i64, i64 } %21
}

; Function Attrs: mustprogress uwtable
define linkonce_odr i64 @_ZNK10open_spiel8quoridor4MovemiERKS1_(ptr noundef nonnull align 4 dereferenceable(16) %0, ptr noundef nonnull align 4 dereferenceable(16) %1) #4 comdat align 2 {
  %3 = alloca %"struct.open_spiel::quoridor::Offset", align 4
  %4 = alloca ptr, align 8
  %5 = alloca ptr, align 8
  store ptr %0, ptr %4, align 8
  store ptr %1, ptr %5, align 8
  %6 = load ptr, ptr %4, align 8
  %7 = getelementptr inbounds nuw %"struct.open_spiel::quoridor::Move", ptr %6, i32 0, i32 0
  %8 = load i32, ptr %7, align 4
  %9 = load ptr, ptr %5, align 8
  %10 = getelementptr inbounds nuw %"struct.open_spiel::quoridor::Move", ptr %9, i32 0, i32 0
  %11 = load i32, ptr %10, align 4
  %12 = sub nsw i32 %8, %11
  %13 = getelementptr inbounds nuw %"struct.open_spiel::quoridor::Move", ptr %6, i32 0, i32 1
  %14 = load i32, ptr %13, align 4
  %15 = load ptr, ptr %5, align 8
  %16 = getelementptr inbounds nuw %"struct.open_spiel::quoridor::Move", ptr %15, i32 0, i32 1
  %17 = load i32, ptr %16, align 4
  %18 = sub nsw i32 %14, %17
  call void @_ZN10open_spiel8quoridor6OffsetC2Eii(ptr noundef nonnull align 4 dereferenceable(8) %3, i32 noundef %12, i32 noundef %18)
  %19 = load i64, ptr %3, align 4
  ret i64 %19
}

; Function Attrs: mustprogress nounwind uwtable
define linkonce_odr noundef nonnull align 4 dereferenceable(16) ptr @_ZNKSt6vectorIN10open_spiel8quoridor4MoveESaIS2_EEixEm(ptr noundef nonnull align 8 dereferenceable(24) %0, i64 noundef %1) #5 comdat align 2 {
  %3 = alloca ptr, align 8
  %4 = alloca i64, align 8
  store ptr %0, ptr %3, align 8
  store i64 %1, ptr %4, align 8
  %5 = load ptr, ptr %3, align 8
  %6 = getelementptr inbounds nuw %"struct.std::_Vector_base.20", ptr %5, i32 0, i32 0
  %7 = getelementptr inbounds nuw %"struct.std::_Vector_base<open_spiel::quoridor::Move, std::allocator<open_spiel::quoridor::Move>>::_Vector_impl_data", ptr %6, i32 0, i32 0
  %8 = load ptr, ptr %7, align 8
  %9 = load i64, ptr %4, align 8
  %10 = getelementptr inbounds %"struct.open_spiel::quoridor::Move", ptr %8, i64 %9
  ret ptr %10
}

; Function Attrs: mustprogress nounwind uwtable
define linkonce_odr noundef zeroext i1 @_ZNK10open_spiel8quoridor4Move6IsWallEv(ptr noundef nonnull align 4 dereferenceable(16) %0) #5 comdat align 2 {
  %2 = alloca ptr, align 8
  store ptr %0, ptr %2, align 8
  %3 = load ptr, ptr %2, align 8
  %4 = getelementptr inbounds nuw %"struct.open_spiel::quoridor::Move", ptr %3, i32 0, i32 0
  %5 = load i32, ptr %4, align 4
  %6 = and i32 %5, 1
  %7 = icmp ne i32 %6, 0
  br i1 %7, label %13, label %8

8:                                                ; preds = %1
  %9 = getelementptr inbounds nuw %"struct.open_spiel::quoridor::Move", ptr %3, i32 0, i32 1
  %10 = load i32, ptr %9, align 4
  %11 = and i32 %10, 1
  %12 = icmp ne i32 %11, 0
  br label %13

13:                                               ; preds = %8, %1
  %14 = phi i1 [ true, %1 ], [ %12, %8 ]
  ret i1 %14
}

; Function Attrs: mustprogress uwtable
define linkonce_odr { i64, i64 } @_ZNK10open_spiel8quoridor13QuoridorState7GetMoveEii(ptr noundef nonnull align 8 dereferenceable(228) %0, i32 noundef %1, i32 noundef %2) #4 comdat align 2 {
  %4 = alloca %"struct.open_spiel::quoridor::Move", align 4
  %5 = alloca ptr, align 8
  %6 = alloca i32, align 4
  %7 = alloca i32, align 4
  store ptr %0, ptr %5, align 8
  store i32 %1, ptr %6, align 4
  store i32 %2, ptr %7, align 4
  %8 = load ptr, ptr %5, align 8
  %9 = load i32, ptr %6, align 4
  %10 = load i32, ptr %7, align 4
  %11 = getelementptr inbounds nuw %"class.open_spiel::quoridor::QuoridorState", ptr %8, i32 0, i32 14
  %12 = load i32, ptr %11, align 4
  call void @_ZN10open_spiel8quoridor4MoveC2Eiii(ptr noundef nonnull align 4 dereferenceable(16) %4, i32 noundef %9, i32 noundef %10, i32 noundef %12)
  %13 = load { i64, i64 }, ptr %4, align 4
  ret { i64, i64 } %13
}

; Function Attrs: mustprogress uwtable
define { i64, i64 } @_ZNK10open_spiel8quoridor13QuoridorState12ActionToMoveEl(ptr noundef nonnull align 8 dereferenceable(228) %0, i64 noundef %1) #4 align 2 {
  %3 = alloca %"struct.open_spiel::quoridor::Move", align 4
  %4 = alloca ptr, align 8
  %5 = alloca i64, align 8
  %6 = alloca %"struct.open_spiel::quoridor::Move", align 4
  %7 = alloca %"struct.open_spiel::quoridor::Move", align 4
  %8 = alloca %"struct.open_spiel::quoridor::Offset", align 4
  %9 = alloca %"struct.open_spiel::quoridor::Move", align 4
  %10 = alloca %"struct.open_spiel::quoridor::Offset", align 4
  %11 = alloca %"struct.open_spiel::quoridor::Offset", align 4
  store ptr %0, ptr %4, align 8
  store i64 %1, ptr %5, align 8
  %12 = load ptr, ptr %4, align 8
  %13 = load i64, ptr %5, align 8
  %14 = getelementptr inbounds nuw %"class.open_spiel::quoridor::QuoridorState", ptr %12, i32 0, i32 14
  %15 = load i32, ptr %14, align 4
  %16 = sext i32 %15 to i64
  %17 = srem i64 %13, %16
  %18 = trunc i64 %17 to i32
  %19 = load i64, ptr %5, align 8
  %20 = getelementptr inbounds nuw %"class.open_spiel::quoridor::QuoridorState", ptr %12, i32 0, i32 14
  %21 = load i32, ptr %20, align 4
  %22 = sext i32 %21 to i64
  %23 = sdiv i64 %19, %22
  %24 = trunc i64 %23 to i32
  %25 = call { i64, i64 } @_ZNK10open_spiel8quoridor13QuoridorState7GetMoveEii(ptr noundef nonnull align 8 dereferenceable(228) %12, i32 noundef %18, i32 noundef %24)
  %26 = getelementptr inbounds nuw { i64, i64 }, ptr %6, i32 0, i32 0
  %27 = extractvalue { i64, i64 } %25, 0
  store i64 %27, ptr %26, align 4
  %28 = getelementptr inbounds nuw { i64, i64 }, ptr %6, i32 0, i32 1
  %29 = extractvalue { i64, i64 } %25, 1
  store i64 %29, ptr %28, align 4
  %30 = call noundef zeroext i1 @_ZNK10open_spiel8quoridor4Move6IsWallEv(ptr noundef nonnull align 4 dereferenceable(16) %6)
  br i1 %30, label %66, label %31

31:                                               ; preds = %2
  %32 = getelementptr inbounds nuw %"class.open_spiel::quoridor::QuoridorState", ptr %12, i32 0, i32 6
  %33 = getelementptr inbounds nuw %"class.open_spiel::quoridor::QuoridorState", ptr %12, i32 0, i32 7
  %34 = load i8, ptr %33, align 8
  %35 = zext i8 %34 to i64
  %36 = call noundef nonnull align 4 dereferenceable(16) ptr @_ZNKSt6vectorIN10open_spiel8quoridor4MoveESaIS2_EEixEm(ptr noundef nonnull align 8 dereferenceable(24) %32, i64 noundef %35) #3
  %37 = getelementptr inbounds nuw %"class.open_spiel::quoridor::QuoridorState", ptr %12, i32 0, i32 17
  %38 = call i64 @_ZNK10open_spiel8quoridor4MovemiERKS1_(ptr noundef nonnull align 4 dereferenceable(16) %6, ptr noundef nonnull align 4 dereferenceable(16) %37)
  store i64 %38, ptr %8, align 4
  %39 = call { i64, i64 } @_ZNK10open_spiel8quoridor4MoveplERKNS0_6OffsetE(ptr noundef nonnull align 4 dereferenceable(16) %36, ptr noundef nonnull align 4 dereferenceable(8) %8)
  %40 = getelementptr inbounds nuw { i64, i64 }, ptr %7, i32 0, i32 0
  %41 = extractvalue { i64, i64 } %39, 0
  store i64 %41, ptr %40, align 4
  %42 = getelementptr inbounds nuw { i64, i64 }, ptr %7, i32 0, i32 1
  %43 = extractvalue { i64, i64 } %39, 1
  store i64 %43, ptr %42, align 4
  call void @llvm.memcpy.p0.p0.i64(ptr align 4 %9, ptr align 4 %7, i64 16, i1 false)
  %44 = getelementptr inbounds nuw { i64, i64 }, ptr %9, i32 0, i32 0
  %45 = load i64, ptr %44, align 4
  %46 = getelementptr inbounds nuw { i64, i64 }, ptr %9, i32 0, i32 1
  %47 = load i64, ptr %46, align 4
  %48 = call noundef zeroext i8 @_ZNK10open_spiel8quoridor13QuoridorState9GetPlayerENS0_4MoveE(ptr noundef nonnull align 8 dereferenceable(228) %12, i64 %45, i64 %47)
  %49 = zext i8 %48 to i32
  %50 = icmp eq i32 %49, 5
  br i1 %50, label %51, label %52

51:                                               ; preds = %31
  call void @llvm.memcpy.p0.p0.i64(ptr align 4 %3, ptr align 4 %7, i64 16, i1 false)
  br label %67

52:                                               ; preds = %31
  %53 = getelementptr inbounds nuw %"class.open_spiel::quoridor::QuoridorState", ptr %12, i32 0, i32 6
  %54 = getelementptr inbounds nuw %"class.open_spiel::quoridor::QuoridorState", ptr %12, i32 0, i32 7
  %55 = load i8, ptr %54, align 8
  %56 = zext i8 %55 to i64
  %57 = call noundef nonnull align 4 dereferenceable(16) ptr @_ZNKSt6vectorIN10open_spiel8quoridor4MoveESaIS2_EEixEm(ptr noundef nonnull align 8 dereferenceable(24) %53, i64 noundef %56) #3
  %58 = getelementptr inbounds nuw %"class.open_spiel::quoridor::QuoridorState", ptr %12, i32 0, i32 17
  %59 = call i64 @_ZNK10open_spiel8quoridor4MovemiERKS1_(ptr noundef nonnull align 4 dereferenceable(16) %6, ptr noundef nonnull align 4 dereferenceable(16) %58)
  store i64 %59, ptr %11, align 4
  %60 = call i64 @_ZNK10open_spiel8quoridor6OffsetmlEi(ptr noundef nonnull align 4 dereferenceable(8) %11, i32 noundef 2)
  store i64 %60, ptr %10, align 4
  %61 = call { i64, i64 } @_ZNK10open_spiel8quoridor4MoveplERKNS0_6OffsetE(ptr noundef nonnull align 4 dereferenceable(16) %57, ptr noundef nonnull align 4 dereferenceable(8) %10)
  %62 = getelementptr inbounds nuw { i64, i64 }, ptr %3, i32 0, i32 0
  %63 = extractvalue { i64, i64 } %61, 0
  store i64 %63, ptr %62, align 4
  %64 = getelementptr inbounds nuw { i64, i64 }, ptr %3, i32 0, i32 1
  %65 = extractvalue { i64, i64 } %61, 1
  store i64 %65, ptr %64, align 4
  br label %67

66:                                               ; preds = %2
  call void @llvm.memcpy.p0.p0.i64(ptr align 4 %3, ptr align 4 %6, i64 16, i1 false)
  br label %67

67:                                               ; preds = %66, %52, %51
  %68 = load { i64, i64 }, ptr %3, align 4
  ret { i64, i64 } %68
}