; Function Attrs: mustprogress nofree norecurse nosync nounwind willreturn memory(read, inaccessiblemem: none) uwtable
define { i64, i64 } @_ZNK10open_spiel8quoridor13QuoridorState12ActionToMoveEl(ptr noundef nonnull readonly align 8 captures(none) dereferenceable(228) %0, i64 noundef %1) local_unnamed_addr #6 align 2 {
  %3 = getelementptr inbounds nuw i8, ptr %0, i64 204
  %4 = load i32, ptr %3, align 4
  %5 = sext i32 %4 to i64
  %6 = srem i64 %1, %5
  %7 = sdiv i64 %1, %5
  %8 = trunc i64 %7 to i32
  %.sroa.040.0.extract.trunc = trunc nsw i64 %6 to i32
  %9 = or i32 %8, %.sroa.040.0.extract.trunc
  %10 = and i32 %9, 1
  %.not = icmp eq i32 %10, 0
  br i1 %.not, label %11, label %48

11:                                               ; preds = %2
  %12 = getelementptr inbounds nuw i8, ptr %0, i64 160
  %13 = getelementptr inbounds nuw i8, ptr %0, i64 184
  %14 = load i8, ptr %13, align 8
  %15 = zext i8 %14 to i64
  %16 = load ptr, ptr %12, align 8
  %17 = getelementptr inbounds nuw %"struct.open_spiel::quoridor::Move", ptr %16, i64 %15
  %18 = getelementptr inbounds nuw i8, ptr %0, i64 212
  %19 = load i32, ptr %18, align 4
  %20 = sub nsw i32 %.sroa.040.0.extract.trunc, %19
  %21 = getelementptr inbounds nuw i8, ptr %0, i64 216
  %22 = load i32, ptr %21, align 8
  %23 = sub nsw i32 %8, %22
  %24 = load i32, ptr %17, align 4
  %25 = add nsw i32 %24, %20
  %26 = getelementptr inbounds nuw i8, ptr %17, i64 4
  %27 = load i32, ptr %26, align 4
  %28 = add nsw i32 %27, %23
  %29 = getelementptr inbounds nuw i8, ptr %17, i64 12
  %30 = load i32, ptr %29, align 4
  %31 = mul nsw i32 %30, %28
  %32 = add nsw i32 %31, %25
  %.sroa.2.0.insert.ext.i8 = zext i32 %28 to i64
  %.sroa.2.0.insert.shift.i9 = shl nuw i64 %.sroa.2.0.insert.ext.i8, 32
  %.sroa.0.0.insert.ext.i10 = zext i32 %25 to i64
  %.sroa.0.0.insert.insert.i11 = or disjoint i64 %.sroa.2.0.insert.shift.i9, %.sroa.0.0.insert.ext.i10
  %.sroa.5.8.insert.ext.i13 = zext i32 %30 to i64
  %.sroa.5.8.insert.shift.i14 = shl nuw i64 %.sroa.5.8.insert.ext.i13, 32
  %.sroa.3.8.insert.ext.i15 = zext i32 %32 to i64
  %.sroa.3.8.insert.insert.i16 = or disjoint i64 %.sroa.5.8.insert.shift.i14, %.sroa.3.8.insert.ext.i15
  %33 = and i64 %.sroa.0.0.insert.insert.i11, -9223372034707292160
  %or.cond.i = icmp eq i64 %33, 0
  br i1 %or.cond.i, label %_ZNK10open_spiel8quoridor4Move7IsValidEv.exit.i, label %_ZNK10open_spiel8quoridor13QuoridorState9GetPlayerENS0_4MoveE.exit.thread

_ZNK10open_spiel8quoridor4Move7IsValidEv.exit.i:  ; preds = %11
  %34 = icmp slt i32 %25, %30
  %35 = icmp slt i32 %28, %30
  %spec.select.i.i = and i1 %34, %35
  br i1 %spec.select.i.i, label %_ZNK10open_spiel8quoridor13QuoridorState9GetPlayerENS0_4MoveE.exit, label %_ZNK10open_spiel8quoridor13QuoridorState9GetPlayerENS0_4MoveE.exit.thread

_ZNK10open_spiel8quoridor13QuoridorState9GetPlayerENS0_4MoveE.exit: ; preds = %_ZNK10open_spiel8quoridor4Move7IsValidEv.exit.i
  %36 = getelementptr inbounds nuw i8, ptr %0, i64 64
  %37 = sext i32 %32 to i64
  %38 = load ptr, ptr %36, align 8
  %39 = getelementptr inbounds i8, ptr %38, i64 %37
  %40 = load i8, ptr %39, align 1
  %41 = icmp eq i8 %40, 5
  br i1 %41, label %51, label %_ZNK10open_spiel8quoridor13QuoridorState9GetPlayerENS0_4MoveE.exit.thread

_ZNK10open_spiel8quoridor13QuoridorState9GetPlayerENS0_4MoveE.exit.thread: ; preds = %11, %_ZNK10open_spiel8quoridor4Move7IsValidEv.exit.i, %_ZNK10open_spiel8quoridor13QuoridorState9GetPlayerENS0_4MoveE.exit
  %42 = shl nsw i32 %20, 1
  %43 = shl nsw i32 %23, 1
  %44 = add nsw i32 %42, %24
  %45 = add nsw i32 %43, %27
  %46 = mul nsw i32 %30, %45
  %47 = add nsw i32 %46, %44
  %.sroa.2.0.insert.ext.i26 = zext i32 %45 to i64
  %.sroa.2.0.insert.shift.i27 = shl nuw i64 %.sroa.2.0.insert.ext.i26, 32
  %.sroa.0.0.insert.ext.i28 = zext i32 %44 to i64
  %.sroa.0.0.insert.insert.i29 = or disjoint i64 %.sroa.2.0.insert.shift.i27, %.sroa.0.0.insert.ext.i28
  %.sroa.3.8.insert.ext.i33 = zext i32 %47 to i64
  %.sroa.3.8.insert.insert.i34 = or disjoint i64 %.sroa.5.8.insert.shift.i14, %.sroa.3.8.insert.ext.i33
  br label %51

48:                                               ; preds = %2
  %.sroa.2.0.insert.ext.i = shl i64 %7, 32
  %.sroa.5.8.insert.ext.i = zext i32 %4 to i64
  %.sroa.5.8.insert.shift.i = shl nuw i64 %.sroa.5.8.insert.ext.i, 32
  %49 = mul nsw i32 %4, %8
  %50 = add nsw i32 %49, %.sroa.040.0.extract.trunc
  %.sroa.3.8.insert.ext.i = zext i32 %50 to i64
  %.sroa.3.8.insert.insert.i = or disjoint i64 %.sroa.5.8.insert.shift.i, %.sroa.3.8.insert.ext.i
  %.sroa.040.0.insert.ext = and i64 %6, 4294967295
  %.sroa.040.0.insert.insert = or disjoint i64 %.sroa.2.0.insert.ext.i, %.sroa.040.0.insert.ext
  br label %51

51:                                               ; preds = %_ZNK10open_spiel8quoridor13QuoridorState9GetPlayerENS0_4MoveE.exit, %48, %_ZNK10open_spiel8quoridor13QuoridorState9GetPlayerENS0_4MoveE.exit.thread
  %.sroa.040.0.insert.insert.pn = phi i64 [ %.sroa.040.0.insert.insert, %48 ], [ %.sroa.0.0.insert.insert.i29, %_ZNK10open_spiel8quoridor13QuoridorState9GetPlayerENS0_4MoveE.exit.thread ], [ %.sroa.0.0.insert.insert.i11, %_ZNK10open_spiel8quoridor13QuoridorState9GetPlayerENS0_4MoveE.exit ]
  %.sroa.3.8.insert.insert.i.pn = phi i64 [ %.sroa.3.8.insert.insert.i, %48 ], [ %.sroa.3.8.insert.insert.i34, %_ZNK10open_spiel8quoridor13QuoridorState9GetPlayerENS0_4MoveE.exit.thread ], [ %.sroa.3.8.insert.insert.i16, %_ZNK10open_spiel8quoridor13QuoridorState9GetPlayerENS0_4MoveE.exit ]
  %.pn = insertvalue { i64, i64 } poison, i64 %.sroa.040.0.insert.insert.pn, 0
  %.fca.1.insert.merged = insertvalue { i64, i64 } %.pn, i64 %.sroa.3.8.insert.insert.i.pn, 1
  ret { i64, i64 } %.fca.1.insert.merged
}